(lp0
(dp1
Vdomain
p2
V.123rf.com
p3
sVname
p4
VPHPSESSID
p5
sVvalue
p6
V2uhvptrpqksf93tcauveqenvd3
p7
sVexpiry
p8
NsVpath
p9
V/
p10
sVhttpOnly
p11
I01
sVsecure
p12
I00
sa(dp13
Vdomain
p14
V.123rf.com
p15
sVname
p16
Vfvdata
p17
sVvalue
p18
V2016-10-05+21%3A42%3A55
p19
sVexpiry
p20
I1478310177
sVpath
p21
g10
sVhttpOnly
p22
I01
sVsecure
p23
I00
sa(dp24
Vdomain
p25
V.123rf.com
p26
sVname
p27
Vmyregion
p28
sVvalue
p29
VMY%7CMalaysia
p30
sVexpiry
p31
I1475804577
sVpath
p32
g10
sVhttpOnly
p33
I00
sVsecure
p34
I00
sa(dp35
Vdomain
p36
V.123rf.com
p37
sVname
p38
Veifv
p39
sVvalue
p40
V1
p41
sVexpiry
p42
I1791078177
sVpath
p43
g10
sVhttpOnly
p44
I01
sVsecure
p45
I00
sa(dp46
Vdomain
p47
V.123rf.com
p48
sVname
p49
Vcp
p50
sVvalue
p51
V7b2267223a317d
p52
sVexpiry
p53
I1478310177
sVpath
p54
g10
sVhttpOnly
p55
I01
sVsecure
p56
I00
sa(dp57
Vdomain
p58
V.123rf.com
p59
sVname
p60
Vbh
p61
sVvalue
p62
g41
sVexpiry
p63
NsVpath
p64
g10
sVhttpOnly
p65
I00
sVsecure
p66
I00
sa(dp67
Vdomain
p68
Vwww.123rf.com
p69
sVname
p70
Vtz
p71
sVvalue
p72
V-8
p73
sVexpiry
p74
NsVpath
p75
g10
sVhttpOnly
p76
I00
sVsecure
p77
I00
sa(dp78
Vdomain
p79
V.123rf.com
p80
sVname
p81
V_dc_gtm_UA-154033-4
p82
sVvalue
p83
g41
sVexpiry
p84
I1475718778
sVpath
p85
g10
sVhttpOnly
p86
I00
sVsecure
p87
I00
sa(dp88
Vdomain
p89
V.123rf.com
p90
sVname
p91
Vsessid
p92
sVvalue
p93
V690e0727a5215fa5c29470d07f506e8561eae4d96c8d999dde8f7524aa81fc6b62dfe45cc0c2991b4bb6a1a3c5202329607a40159e9f9327
p94
sVexpiry
p95
I1791078178
sVpath
p96
g10
sVhttpOnly
p97
I00
sVsecure
p98
I00
sa(dp99
Vdomain
p100
V.123rf.com
p101
sVname
p102
V_ga
p103
sVvalue
p104
VGA1.2.1277531492.1475718178
p105
sVexpiry
p106
I1538790181
sVpath
p107
g10
sVhttpOnly
p108
I00
sVsecure
p109
I00
sa(dp110
Vdomain
p111
V.123rf.com
p112
sVname
p113
Vkeep_user
p114
sVvalue
p115
V79588d42d57fa968066523b77a7dcb3b
p116
sVexpiry
p117
I1478310183
sVpath
p118
g10
sVhttpOnly
p119
I01
sVsecure
p120
I00
sa(dp121
Vdomain
p122
V.123rf.com
p123
sVname
p124
Vsavedid
p125
sVvalue
p126
Vcy919
p127
sVexpiry
p128
I1476322983
sVpath
p129
g10
sVhttpOnly
p130
I01
sVsecure
p131
I00
sa(dp132
Vdomain
p133
V.123rf.com
p134
sVname
p135
Vlogindone
p136
sVvalue
p137
Vyes
p138
sVexpiry
p139
NsVpath
p140
g10
sVhttpOnly
p141
I01
sVsecure
p142
I00
sa.